target datalayout = "e-m:e-p270:32:32-p271:32:32-p272:64:64-i64:64-i128:128-f80:128-n8:16:32:64-S128"
target triple = "x86_64-pc-linux-gnu"

%struct.DISASM_RESULT = type { i16, i8, i8, i8, [3 x [10 x i8]], [29 x i8] }

@cli_debug_flag = external global i8, align 1

; Function Attrs: nounwind uwtable
define i32 @disasmbuf(ptr noundef %0, i32 noundef %1, i32 noundef %2) #0 {
  %4 = alloca i32, align 4
  %5 = alloca ptr, align 8
  %6 = alloca i32, align 4
  %7 = alloca i32, align 4
  %8 = alloca ptr, align 8
  %9 = alloca i32, align 4
  %10 = alloca i32, align 4
  %11 = alloca %struct.DISASM_RESULT, align 2
  store ptr %0, ptr %5, align 8
  store i32 %1, ptr %6, align 4
  store i32 %2, ptr %7, align 4
  %12 = load ptr, ptr %5, align 8
  store ptr %12, ptr %8, align 8
  store i32 0, ptr %9, align 4
  store i32 0, ptr %10, align 4
  %13 = getelementptr inbounds %struct.DISASM_RESULT, ptr %11, i32 0, i32 5
  %14 = getelementptr inbounds [29 x i8], ptr %13, i64 0, i64 0
  call void @llvm.memset.p0.i64(ptr align 1 %14, i8 0, i64 29, i1 false)
  br label %15

15:                                               ; preds = %33, %3
  %16 = load i32, ptr %6, align 4
  %17 = icmp ne i32 %16, 0
  br i1 %17, label %18, label %22

18:                                               ; preds = %15
  %19 = load i32, ptr %9, align 4
  %20 = add i32 %19, 1
  store i32 %20, ptr %9, align 4
  %21 = icmp ult i32 %19, 200
  br label %22

22:                                               ; preds = %18, %15
  %23 = phi i1 [ false, %15 ], [ %21, %18 ]
  br i1 %23, label %24, label %46

24:                                               ; preds = %22
  %25 = load ptr, ptr %8, align 8
  %26 = load i32, ptr %6, align 4
  %27 = load i8, ptr @cli_debug_flag, align 1
  %28 = zext i8 %27 to i32
  %29 = call ptr @cli_disasm_one(ptr noundef %25, i32 noundef %26, ptr noundef %11, i32 noundef %28)
  store ptr %29, ptr %8, align 8
  %30 = icmp ne ptr %29, null
  br i1 %30, label %33, label %31

31:                                               ; preds = %24
  %32 = load i32, ptr %10, align 4
  store i32 %32, ptr %4, align 4
  br label %48

33:                                               ; preds = %24
  %34 = load ptr, ptr %8, align 8
  %35 = load ptr, ptr %5, align 8
  %36 = ptrtoint ptr %34 to i64
  %37 = ptrtoint ptr %35 to i64
  %38 = sub i64 %36, %37
  %39 = load i32, ptr %6, align 4
  %40 = zext i32 %39 to i64
  %41 = sub nsw i64 %40, %38
  %42 = trunc i64 %41 to i32
  store i32 %42, ptr %6, align 4
  %43 = load ptr, ptr %8, align 8
  store ptr %43, ptr %5, align 8
  %44 = load i32, ptr %7, align 4
  %45 = call i64 @cli_writen(i32 noundef %44, ptr noundef %11, i64 noundef 64)
  store i32 1, ptr %10, align 4
  br label %15

46:                                               ; preds = %22
  %47 = load i32, ptr %10, align 4
  store i32 %47, ptr %4, align 4
  br label %48

48:                                               ; preds = %46, %31
  %49 = load i32, ptr %4, align 4
  ret i32 %49
}