; Function Attrs: nounwind uwtable
define noundef i32 @disasmbuf(ptr noundef %0, i32 noundef %1, i32 noundef %2) local_unnamed_addr #0 {
  %4 = alloca %struct.DISASM_RESULT, align 2
  %5 = getelementptr inbounds i8, ptr %4, i64 35
  call void @llvm.memset.p0.i64(ptr noundef nonnull align 1 dereferenceable(29) %5, i8 0, i64 29, i1 false)
  %.not19 = icmp eq i32 %1, 0
  br i1 %.not19, label %.critedge, label %.lr.ph.preheader

.lr.ph.preheader:                                 ; preds = %3, %10
  %6 = phi i32 [ %16, %10 ], [ 1, %3 ]
  %.0152030 = phi i32 [ %14, %10 ], [ %1, %3 ]
  %.0132129 = phi ptr [ %9, %10 ], [ %0, %3 ]
  %.02328 = phi i32 [ 1, %10 ], [ 0, %3 ]
  %7 = load i8, ptr @cli_debug_flag, align 1
  %8 = zext i8 %7 to i32
  %9 = call ptr @cli_disasm_one(ptr noundef %.0132129, i32 noundef %.0152030, ptr noundef nonnull %4, i32 noundef %8)
  %.not18 = icmp eq ptr %9, null
  br i1 %.not18, label %.critedge, label %10

10:                                               ; preds = %.lr.ph.preheader
  %11 = ptrtoint ptr %9 to i64
  %12 = ptrtoint ptr %.0132129 to i64
  %.neg = sub i64 %12, %11
  %13 = trunc i64 %.neg to i32
  %14 = add i32 %.0152030, %13
  %15 = call i64 @cli_writen(i32 noundef %2, ptr noundef nonnull %4, i64 noundef 64) #10
  %.not = icmp eq i32 %14, 0
  %16 = add nuw nsw i32 %6, 1
  %exitcond.not = icmp eq i32 %6, 200
  %or.cond = select i1 %.not, i1 true, i1 %exitcond.not
  br i1 %or.cond, label %.critedge, label %.lr.ph.preheader

.critedge:                                        ; preds = %.lr.ph.preheader, %10, %3
  %.0.lcssa = phi i32 [ 0, %3 ], [ 1, %10 ], [ %.02328, %.lr.ph.preheader ]
  ret i32 %.0.lcssa
}